target datalayout = "e-m:e-p270:32:32-p271:32:32-p272:64:64-i64:64-i128:128-f80:128-n8:16:32:64-S128"
target triple = "x86_64-pc-linux-gnu"

%struct._zend_browscap_globals = type { %struct.browser_data }
%struct.browser_data = type { ptr, ptr, i32, i32, [4096 x i8] }

@browscap_globals = hidden global %struct._zend_browscap_globals zeroinitializer, align 8

; Function Attrs: nounwind uwtable
define hidden i32 @zm_deactivate_browscap(i32 noundef %0, i32 noundef %1) #0 {
  %3 = alloca i32, align 4
  %4 = alloca i32, align 4
  %5 = alloca ptr, align 8
  store i32 %0, ptr %3, align 4
  store i32 %1, ptr %4, align 4
  store ptr @browscap_globals, ptr %5, align 8
  %6 = load ptr, ptr %5, align 8
  %7 = getelementptr inbounds %struct.browser_data, ptr %6, i32 0, i32 4
  %8 = getelementptr inbounds [4096 x i8], ptr %7, i64 0, i64 0
  %9 = load i8, ptr %8, align 8
  %10 = sext i8 %9 to i32
  %11 = icmp ne i32 %10, 0
  br i1 %11, label %12, label %14

12:                                               ; preds = %2
  %13 = load ptr, ptr %5, align 8
  call void @browscap_bdata_dtor(ptr noundef %13, i32 noundef 0)
  br label %14

14:                                               ; preds = %12, %2
  ret i32 0
}