; Function Attrs: nounwind uwtable
define hidden noundef i32 @zm_deactivate_browscap(i32 noundef %0, i32 noundef %1) local_unnamed_addr #0 {
  %3 = load i8, ptr getelementptr inbounds (%struct._zend_browscap_globals, ptr @browscap_globals, i64 0, i32 0, i32 4), align 8
  %.not = icmp eq i8 %3, 0
  br i1 %.not, label %5, label %4

4:                                                ; preds = %2
  tail call fastcc void @browscap_bdata_dtor(ptr noundef nonnull @browscap_globals, i32 noundef 0)
  br label %5

5:                                                ; preds = %4, %2
  ret i32 0
}